target datalayout = "e-m:e-p270:32:32-p271:32:32-p272:64:64-i64:64-i128:128-f80:128-n8:16:32:64-S128"
target triple = "x86_64-pc-linux-gnu"

%struct._value_string = type { i32, ptr }

@hf_sua_source_gt_reserved = internal global i32 0, align 4
@hf_sua_source_gti = internal global i32 0, align 4
@hf_sua_source_number_of_digits = internal global i32 0, align 4
@hf_sua_source_translation_type = internal global i32 0, align 4
@hf_sua_source_numbering_plan = internal global i32 0, align 4
@hf_sua_source_nature_of_address = internal global i32 0, align 4
@hf_sua_source_global_title_digits = internal global i32 0, align 4
@hf_sua_dest_gt_reserved = internal global i32 0, align 4
@hf_sua_dest_gti = internal global i32 0, align 4
@hf_sua_dest_number_of_digits = internal global i32 0, align 4
@hf_sua_dest_translation_type = internal global i32 0, align 4
@hf_sua_dest_numbering_plan = internal global i32 0, align 4
@hf_sua_dest_nature_of_address = internal global i32 0, align 4
@hf_sua_dest_global_title_digits = internal global i32 0, align 4
@.str.348 = private unnamed_addr constant [8 x i8] c"Unknown\00", align 1
@sua_source_gt = internal global ptr null, align 8
@sua_destination_gt = internal global ptr null, align 8
@sua_ri = internal global i16 0, align 2
@sccp_address_signal_values = external constant [0 x %struct._value_string], align 8
@.str.463 = private unnamed_addr constant [33 x i8] c"Address information (digits): %s\00", align 1

; Function Attrs: null_pointer_is_valid sspstrong uwtable
define internal void @dissect_global_title_parameter(ptr noundef %0, ptr noundef %1, i1 noundef zeroext %2) #0 {
  %4 = alloca ptr, align 8
  %5 = alloca ptr, align 8
  %6 = alloca i8, align 1
  %7 = alloca i16, align 2
  %8 = alloca i16, align 2
  %9 = alloca i8, align 1
  %10 = alloca i8, align 1
  %11 = alloca i8, align 1
  %12 = alloca i8, align 1
  %13 = alloca ptr, align 8
  store ptr %0, ptr %4, align 8
  store ptr %1, ptr %5, align 8
  %14 = zext i1 %2 to i8
  store i8 %14, ptr %6, align 1
  call void @llvm.lifetime.start.p0(i64 2, ptr %7) #6
  call void @llvm.lifetime.start.p0(i64 2, ptr %8) #6
  call void @llvm.lifetime.start.p0(i64 1, ptr %9) #6
  call void @llvm.lifetime.start.p0(i64 1, ptr %10) #6
  call void @llvm.lifetime.start.p0(i64 1, ptr %11) #6
  call void @llvm.lifetime.start.p0(i64 1, ptr %12) #6
  call void @llvm.lifetime.start.p0(i64 8, ptr %13) #6
  %15 = call ptr @wmem_packet_scope()
  %16 = call noalias ptr @wmem_alloc0(ptr noundef %15, i64 noundef 225) #7
  store ptr %16, ptr %13, align 8
  %17 = load ptr, ptr %4, align 8
  %18 = call zeroext i16 @tvb_get_ntohs(ptr noundef %17, i32 noundef 2)
  %19 = zext i16 %18 to i32
  %20 = sub i32 %19, 12
  %21 = trunc i32 %20 to i16
  store i16 %21, ptr %7, align 2
  %22 = load ptr, ptr %5, align 8
  %23 = load i8, ptr %6, align 1, !range !6, !noundef !7
  %24 = trunc i8 %23 to i1
  br i1 %24, label %25, label %27

25:                                               ; preds = %3
  %26 = load i32, ptr @hf_sua_source_gt_reserved, align 4
  br label %29

27:                                               ; preds = %3
  %28 = load i32, ptr @hf_sua_dest_gt_reserved, align 4
  br label %29

29:                                               ; preds = %27, %25
  %30 = phi i32 [ %26, %25 ], [ %28, %27 ]
  %31 = load ptr, ptr %4, align 8
  %32 = call ptr @proto_tree_add_item(ptr noundef %22, i32 noundef %30, ptr noundef %31, i32 noundef 4, i32 noundef 3, i32 noundef 0)
  %33 = load ptr, ptr %5, align 8
  %34 = load i8, ptr %6, align 1, !range !6, !noundef !7
  %35 = trunc i8 %34 to i1
  br i1 %35, label %36, label %38

36:                                               ; preds = %29
  %37 = load i32, ptr @hf_sua_source_gti, align 4
  br label %40

38:                                               ; preds = %29
  %39 = load i32, ptr @hf_sua_dest_gti, align 4
  br label %40

40:                                               ; preds = %38, %36
  %41 = phi i32 [ %37, %36 ], [ %39, %38 ]
  %42 = load ptr, ptr %4, align 8
  %43 = call ptr @proto_tree_add_item(ptr noundef %33, i32 noundef %41, ptr noundef %42, i32 noundef 7, i32 noundef 1, i32 noundef 0)
  %44 = load ptr, ptr %5, align 8
  %45 = load i8, ptr %6, align 1, !range !6, !noundef !7
  %46 = trunc i8 %45 to i1
  br i1 %46, label %47, label %49

47:                                               ; preds = %40
  %48 = load i32, ptr @hf_sua_source_number_of_digits, align 4
  br label %51

49:                                               ; preds = %40
  %50 = load i32, ptr @hf_sua_dest_number_of_digits, align 4
  br label %51

51:                                               ; preds = %49, %47
  %52 = phi i32 [ %48, %47 ], [ %50, %49 ]
  %53 = load ptr, ptr %4, align 8
  %54 = call ptr @proto_tree_add_item(ptr noundef %44, i32 noundef %52, ptr noundef %53, i32 noundef 8, i32 noundef 1, i32 noundef 0)
  %55 = load ptr, ptr %5, align 8
  %56 = load i8, ptr %6, align 1, !range !6, !noundef !7
  %57 = trunc i8 %56 to i1
  br i1 %57, label %58, label %60

58:                                               ; preds = %51
  %59 = load i32, ptr @hf_sua_source_translation_type, align 4
  br label %62

60:                                               ; preds = %51
  %61 = load i32, ptr @hf_sua_dest_translation_type, align 4
  br label %62

62:                                               ; preds = %60, %58
  %63 = phi i32 [ %59, %58 ], [ %61, %60 ]
  %64 = load ptr, ptr %4, align 8
  %65 = call ptr @proto_tree_add_item(ptr noundef %55, i32 noundef %63, ptr noundef %64, i32 noundef 9, i32 noundef 1, i32 noundef 0)
  %66 = load ptr, ptr %5, align 8
  %67 = load i8, ptr %6, align 1, !range !6, !noundef !7
  %68 = trunc i8 %67 to i1
  br i1 %68, label %69, label %71

69:                                               ; preds = %62
  %70 = load i32, ptr @hf_sua_source_numbering_plan, align 4
  br label %73

71:                                               ; preds = %62
  %72 = load i32, ptr @hf_sua_dest_numbering_plan, align 4
  br label %73

73:                                               ; preds = %71, %69
  %74 = phi i32 [ %70, %69 ], [ %72, %71 ]
  %75 = load ptr, ptr %4, align 8
  %76 = call ptr @proto_tree_add_item(ptr noundef %66, i32 noundef %74, ptr noundef %75, i32 noundef 10, i32 noundef 1, i32 noundef 0)
  %77 = load ptr, ptr %5, align 8
  %78 = load i8, ptr %6, align 1, !range !6, !noundef !7
  %79 = trunc i8 %78 to i1
  br i1 %79, label %80, label %82

80:                                               ; preds = %73
  %81 = load i32, ptr @hf_sua_source_nature_of_address, align 4
  br label %84

82:                                               ; preds = %73
  %83 = load i32, ptr @hf_sua_dest_nature_of_address, align 4
  br label %84

84:                                               ; preds = %82, %80
  %85 = phi i32 [ %81, %80 ], [ %83, %82 ]
  %86 = load ptr, ptr %4, align 8
  %87 = call ptr @proto_tree_add_item(ptr noundef %77, i32 noundef %85, ptr noundef %86, i32 noundef 11, i32 noundef 1, i32 noundef 0)
  %88 = load ptr, ptr %4, align 8
  %89 = call zeroext i8 @tvb_get_uint8(ptr noundef %88, i32 noundef 8)
  store i8 %89, ptr %12, align 1
  %90 = load i8, ptr %12, align 1
  %91 = zext i8 %90 to i32
  %92 = srem i32 %91, 2
  %93 = icmp ne i32 %92, 0
  %94 = xor i1 %93, true
  %95 = zext i1 %94 to i8
  store i8 %95, ptr %9, align 1
  store i16 12, ptr %8, align 2
  br label %96

96:                                               ; preds = %145, %84
  %97 = load i16, ptr %8, align 2
  %98 = zext i16 %97 to i32
  %99 = load i16, ptr %7, align 2
  %100 = zext i16 %99 to i32
  %101 = add i32 12, %100
  %102 = icmp slt i32 %98, %101
  br i1 %102, label %103, label %150

103:                                              ; preds = %96
  %104 = load ptr, ptr %4, align 8
  %105 = load i16, ptr %8, align 2
  %106 = zext i16 %105 to i32
  %107 = call zeroext i8 @tvb_get_uint8(ptr noundef %104, i32 noundef %106)
  %108 = zext i8 %107 to i32
  %109 = and i32 %108, 15
  %110 = trunc i32 %109 to i8
  store i8 %110, ptr %10, align 1
  %111 = load ptr, ptr %4, align 8
  %112 = load i16, ptr %8, align 2
  %113 = zext i16 %112 to i32
  %114 = call zeroext i8 @tvb_get_uint8(ptr noundef %111, i32 noundef %113)
  %115 = zext i8 %114 to i32
  %116 = and i32 %115, 240
  %117 = trunc i32 %116 to i8
  store i8 %117, ptr %11, align 1
  %118 = load i8, ptr %11, align 1
  %119 = zext i8 %118 to i32
  %120 = ashr i32 %119, 4
  %121 = trunc i32 %120 to i8
  store i8 %121, ptr %11, align 1
  %122 = load ptr, ptr %13, align 8
  %123 = load i8, ptr %10, align 1
  %124 = zext i8 %123 to i32
  %125 = call ptr @val_to_str_const(i32 noundef %124, ptr noundef @sccp_address_signal_values, ptr noundef @.str.348)
  %126 = call i64 @g_strlcat(ptr noundef %122, ptr noundef %125, i64 noundef 225)
  %127 = load i16, ptr %8, align 2
  %128 = zext i16 %127 to i32
  %129 = load i16, ptr %7, align 2
  %130 = zext i16 %129 to i32
  %131 = add i32 12, %130
  %132 = sub i32 %131, 1
  %133 = icmp ne i32 %128, %132
  br i1 %133, label %139, label %134

134:                                              ; preds = %103
  %135 = load i8, ptr %9, align 1, !range !6, !noundef !7
  %136 = trunc i8 %135 to i1
  %137 = zext i1 %136 to i32
  %138 = icmp eq i32 %137, 1
  br i1 %138, label %139, label %145

139:                                              ; preds = %134, %103
  %140 = load ptr, ptr %13, align 8
  %141 = load i8, ptr %11, align 1
  %142 = zext i8 %141 to i32
  %143 = call ptr @val_to_str_const(i32 noundef %142, ptr noundef @sccp_address_signal_values, ptr noundef @.str.348)
  %144 = call i64 @g_strlcat(ptr noundef %140, ptr noundef %143, i64 noundef 225)
  br label %145

145:                                              ; preds = %139, %134
  %146 = load i16, ptr %8, align 2
  %147 = zext i16 %146 to i32
  %148 = add i32 %147, 1
  %149 = trunc i32 %148 to i16
  store i16 %149, ptr %8, align 2
  br label %96, !llvm.loop !12

150:                                              ; preds = %96
  %151 = load ptr, ptr %5, align 8
  %152 = load i8, ptr %6, align 1, !range !6, !noundef !7
  %153 = trunc i8 %152 to i1
  br i1 %153, label %154, label %156

154:                                              ; preds = %150
  %155 = load i32, ptr @hf_sua_source_global_title_digits, align 4
  br label %158

156:                                              ; preds = %150
  %157 = load i32, ptr @hf_sua_dest_global_title_digits, align 4
  br label %158

158:                                              ; preds = %156, %154
  %159 = phi i32 [ %155, %154 ], [ %157, %156 ]
  %160 = load ptr, ptr %4, align 8
  %161 = load i16, ptr %7, align 2
  %162 = zext i16 %161 to i32
  %163 = load ptr, ptr %13, align 8
  %164 = load ptr, ptr %13, align 8
  %165 = call ptr (ptr, i32, ptr, i32, i32, ptr, ptr, ...) @proto_tree_add_string_format(ptr noundef %151, i32 noundef %159, ptr noundef %160, i32 noundef 12, i32 noundef %162, ptr noundef %163, ptr noundef @.str.463, ptr noundef %164)
  %166 = load i16, ptr @sua_ri, align 2
  %167 = zext i16 %166 to i32
  %168 = icmp eq i32 %167, 1
  br i1 %168, label %169, label %177

169:                                              ; preds = %158
  %170 = load i8, ptr %6, align 1, !range !6, !noundef !7
  %171 = trunc i8 %170 to i1
  br i1 %171, label %172, label %174

172:                                              ; preds = %169
  %173 = load ptr, ptr %13, align 8
  store ptr %173, ptr @sua_source_gt, align 8
  br label %176

174:                                              ; preds = %169
  %175 = load ptr, ptr %13, align 8
  store ptr %175, ptr @sua_destination_gt, align 8
  br label %176

176:                                              ; preds = %174, %172
  br label %177

177:                                              ; preds = %176, %158
  call void @llvm.lifetime.end.p0(i64 8, ptr %13) #6
  call void @llvm.lifetime.end.p0(i64 1, ptr %12) #6
  call void @llvm.lifetime.end.p0(i64 1, ptr %11) #6
  call void @llvm.lifetime.end.p0(i64 1, ptr %10) #6
  call void @llvm.lifetime.end.p0(i64 1, ptr %9) #6
  call void @llvm.lifetime.end.p0(i64 2, ptr %8) #6
  call void @llvm.lifetime.end.p0(i64 2, ptr %7) #6
  ret void
}