; Function Attrs: null_pointer_is_valid sspstrong uwtable
define internal fastcc void @dissect_global_title_parameter(ptr noundef %0, ptr noundef %1, i1 noundef zeroext %2) unnamed_addr #0 {
  %4 = tail call ptr @wmem_packet_scope()
  %5 = tail call noalias dereferenceable_or_null(225) ptr @wmem_alloc0(ptr noundef %4, i64 noundef 225) #8
  %6 = tail call zeroext i16 @tvb_get_ntohs(ptr noundef %0, i32 noundef 2)
  %7 = add i16 %6, -12
  %8 = load i32, ptr @hf_sua_source_gt_reserved, align 4
  %9 = load i32, ptr @hf_sua_dest_gt_reserved, align 4
  %10 = select i1 %2, i32 %8, i32 %9
  %11 = tail call ptr @proto_tree_add_item(ptr noundef %1, i32 noundef %10, ptr noundef %0, i32 noundef 4, i32 noundef 3, i32 noundef 0)
  %12 = load i32, ptr @hf_sua_source_gti, align 4
  %13 = load i32, ptr @hf_sua_dest_gti, align 4
  %14 = select i1 %2, i32 %12, i32 %13
  %15 = tail call ptr @proto_tree_add_item(ptr noundef %1, i32 noundef %14, ptr noundef %0, i32 noundef 7, i32 noundef 1, i32 noundef 0)
  %16 = load i32, ptr @hf_sua_source_number_of_digits, align 4
  %17 = load i32, ptr @hf_sua_dest_number_of_digits, align 4
  %18 = select i1 %2, i32 %16, i32 %17
  %19 = tail call ptr @proto_tree_add_item(ptr noundef %1, i32 noundef %18, ptr noundef %0, i32 noundef 8, i32 noundef 1, i32 noundef 0)
  %20 = load i32, ptr @hf_sua_source_translation_type, align 4
  %21 = load i32, ptr @hf_sua_dest_translation_type, align 4
  %22 = select i1 %2, i32 %20, i32 %21
  %23 = tail call ptr @proto_tree_add_item(ptr noundef %1, i32 noundef %22, ptr noundef %0, i32 noundef 9, i32 noundef 1, i32 noundef 0)
  %24 = load i32, ptr @hf_sua_source_numbering_plan, align 4
  %25 = load i32, ptr @hf_sua_dest_numbering_plan, align 4
  %26 = select i1 %2, i32 %24, i32 %25
  %27 = tail call ptr @proto_tree_add_item(ptr noundef %1, i32 noundef %26, ptr noundef %0, i32 noundef 10, i32 noundef 1, i32 noundef 0)
  %28 = load i32, ptr @hf_sua_source_nature_of_address, align 4
  %29 = load i32, ptr @hf_sua_dest_nature_of_address, align 4
  %30 = select i1 %2, i32 %28, i32 %29
  %31 = tail call ptr @proto_tree_add_item(ptr noundef %1, i32 noundef %30, ptr noundef %0, i32 noundef 11, i32 noundef 1, i32 noundef 0)
  %32 = tail call zeroext i8 @tvb_get_uint8(ptr noundef %0, i32 noundef 8)
  %33 = zext i16 %7 to i32
  %34 = add nuw nsw i32 %33, 12
  %.not47 = icmp eq i16 %7, 0
  br i1 %.not47, label %._crit_edge, label %.lr.ph

.lr.ph:                                           ; preds = %3
  %.fr48 = freeze i8 %32
  %35 = and i8 %.fr48, 1
  %.not = icmp eq i8 %35, 0
  %36 = add nuw nsw i32 %33, 11
  br i1 %.not, label %.lr.ph.split.us, label %.lr.ph.split

.lr.ph.split.us:                                  ; preds = %.lr.ph, %.lr.ph.split.us
  %37 = phi i32 [ %49, %.lr.ph.split.us ], [ 12, %.lr.ph ]
  %38 = tail call zeroext i8 @tvb_get_uint8(ptr noundef %0, i32 noundef %37)
  %39 = and i8 %38, 15
  %40 = tail call zeroext i8 @tvb_get_uint8(ptr noundef %0, i32 noundef %37)
  %41 = zext nneg i8 %39 to i32
  %42 = tail call ptr @val_to_str_const(i32 noundef %41, ptr noundef nonnull @sccp_address_signal_values, ptr noundef nonnull @.str.348)
  %43 = tail call i64 @g_strlcat(ptr noundef %5, ptr noundef %42, i64 noundef 225)
  %44 = lshr i8 %40, 4
  %45 = zext nneg i8 %44 to i32
  %46 = tail call ptr @val_to_str_const(i32 noundef %45, ptr noundef nonnull @sccp_address_signal_values, ptr noundef nonnull @.str.348)
  %47 = tail call i64 @g_strlcat(ptr noundef %5, ptr noundef %46, i64 noundef 225)
  %48 = add nuw nsw i32 %37, 1
  %49 = and i32 %48, 65535
  %50 = icmp samesign ult i32 %49, %34
  br i1 %50, label %.lr.ph.split.us, label %._crit_edge, !llvm.loop !12

.lr.ph.split:                                     ; preds = %.lr.ph, %63
  %51 = phi i32 [ %65, %63 ], [ 12, %.lr.ph ]
  %52 = tail call zeroext i8 @tvb_get_uint8(ptr noundef %0, i32 noundef %51)
  %53 = and i8 %52, 15
  %54 = tail call zeroext i8 @tvb_get_uint8(ptr noundef %0, i32 noundef %51)
  %55 = zext nneg i8 %53 to i32
  %56 = tail call ptr @val_to_str_const(i32 noundef %55, ptr noundef nonnull @sccp_address_signal_values, ptr noundef nonnull @.str.348)
  %57 = tail call i64 @g_strlcat(ptr noundef %5, ptr noundef %56, i64 noundef 225)
  %.not46.not = icmp eq i32 %51, %36
  br i1 %.not46.not, label %63, label %58

58:                                               ; preds = %.lr.ph.split
  %59 = lshr i8 %54, 4
  %60 = zext nneg i8 %59 to i32
  %61 = tail call ptr @val_to_str_const(i32 noundef %60, ptr noundef nonnull @sccp_address_signal_values, ptr noundef nonnull @.str.348)
  %62 = tail call i64 @g_strlcat(ptr noundef %5, ptr noundef %61, i64 noundef 225)
  br label %63

63:                                               ; preds = %.lr.ph.split, %58
  %64 = add nuw nsw i32 %51, 1
  %65 = and i32 %64, 65535
  %66 = icmp samesign ult i32 %65, %34
  br i1 %66, label %.lr.ph.split, label %._crit_edge, !llvm.loop !12

._crit_edge:                                      ; preds = %63, %.lr.ph.split.us, %3
  %67 = load i32, ptr @hf_sua_source_global_title_digits, align 4
  %68 = load i32, ptr @hf_sua_dest_global_title_digits, align 4
  %69 = select i1 %2, i32 %67, i32 %68
  %70 = tail call ptr (ptr, i32, ptr, i32, i32, ptr, ptr, ...) @proto_tree_add_string_format(ptr noundef %1, i32 noundef %69, ptr noundef %0, i32 noundef 12, i32 noundef %33, ptr noundef %5, ptr noundef nonnull @.str.463, ptr noundef %5)
  %71 = load i16, ptr @sua_ri, align 2
  %72 = icmp eq i16 %71, 1
  br i1 %72, label %.sink.split, label %73

.sink.split:                                      ; preds = %._crit_edge
  %sua_source_gt.sua_destination_gt = select i1 %2, ptr @sua_source_gt, ptr @sua_destination_gt
  store ptr %5, ptr %sua_source_gt.sua_destination_gt, align 8
  br label %73

73:                                               ; preds = %.sink.split, %._crit_edge
  ret void
}